; Function Attrs: mustprogress uwtable
define void @_ZN6marisa8grimoire4trie9LoudsTrie5buildERNS_6KeysetEi(ptr noundef nonnull align 8 dereferenceable(1136) %0, ptr nocapture noundef nonnull readonly align 8 dereferenceable(104) %1, i32 noundef %2) local_unnamed_addr #3 align 2 personality ptr @__gxx_personality_v0 {
  %4 = alloca %"class.marisa::grimoire::trie::Config", align 8
  %5 = alloca %"class.marisa::grimoire::trie::Config", align 8
  %6 = alloca %"class.marisa::grimoire::trie::LoudsTrie", align 8
  %7 = getelementptr inbounds i8, ptr %5, i64 8
  %8 = getelementptr inbounds i8, ptr %5, i64 16
  call void @llvm.lifetime.start.p0(i64 24, ptr nonnull %4)
  store i64 3, ptr %4, align 8
  %9 = getelementptr inbounds i8, ptr %4, i64 8
  store i32 512, ptr %9, align 8
  %10 = getelementptr inbounds i8, ptr %4, i64 12
  store i32 4096, ptr %10, align 4
  %11 = getelementptr inbounds i8, ptr %4, i64 16
  store i32 131072, ptr %11, align 8
  call void @_ZN6marisa8grimoire4trie6Config6parse_Ei(ptr noundef nonnull align 8 dereferenceable(20) %4, i32 noundef %2)
  %12 = load i64, ptr %4, align 8
  store i64 %12, ptr %5, align 8
  %13 = load <2 x i32>, ptr %9, align 8
  store <2 x i32> %13, ptr %7, align 8
  %14 = load i32, ptr %11, align 8
  store i32 %14, ptr %8, align 8
  call void @llvm.lifetime.end.p0(i64 24, ptr nonnull %4)
  call void @_ZN6marisa8grimoire4trie9LoudsTrieC1Ev(ptr noundef nonnull align 8 dereferenceable(1136) %6)
  invoke void @_ZN6marisa8grimoire4trie9LoudsTrie6build_ERNS_6KeysetERKNS1_6ConfigE(ptr noundef nonnull align 8 dereferenceable(1136) %6, ptr noundef nonnull align 8 dereferenceable(104) %1, ptr noundef nonnull align 8 dereferenceable(20) %5)
          to label %15 unwind label %17

15:                                               ; preds = %3
  invoke void @_ZN6marisa8grimoire4trie9LoudsTrie4swapERS2_(ptr noundef nonnull align 8 dereferenceable(1136) %0, ptr noundef nonnull align 8 dereferenceable(1136) %6)
          to label %16 unwind label %17

16:                                               ; preds = %15
  call void @_ZN6marisa8grimoire4trie9LoudsTrieD1Ev(ptr noundef nonnull align 8 dereferenceable(1136) %6) #20
  ret void

17:                                               ; preds = %15, %3
  %18 = landingpad { ptr, i32 }
          cleanup
  call void @_ZN6marisa8grimoire4trie9LoudsTrieD1Ev(ptr noundef nonnull align 8 dereferenceable(1136) %6) #20
  resume { ptr, i32 } %18
}